; Function Attrs: mustprogress nofree nounwind willreturn memory(argmem: read) uwtable
define hidden noundef i32 @_Z28compare_malloc_site_and_typeRK10MallocSiteS1_(ptr nocapture noundef nonnull readonly align 8 dereferenceable(72) %0, ptr nocapture noundef nonnull readonly align 8 dereferenceable(72) %1) local_unnamed_addr #2 {
  %3 = tail call noundef i32 @memcmp(ptr noundef nonnull readonly dereferenceable(32) %0, ptr noundef nonnull readonly dereferenceable(32) %1, i64 noundef 32) #13
  %4 = icmp eq i32 %3, 0
  %5 = getelementptr inbounds i8, ptr %0, i64 32
  %6 = load i8, ptr %5, align 8
  %7 = zext i8 %6 to i32
  %8 = getelementptr inbounds i8, ptr %1, i64 32
  %9 = load i8, ptr %8, align 8
  %10 = zext i8 %9 to i32
  %11 = sub nsw i32 %7, %10
  %.0 = select i1 %4, i32 %11, i32 %3
  ret i32 %.0
}